; Function Attrs: mustprogress uwtable
define hidden void @_ZN6google8protobuf8compiler6csharp26WrapperOneofFieldGeneratorC2EPKNS0_15FieldDescriptorEiPKNS2_7OptionsE(ptr noundef nonnull align 8 dereferenceable(65) %this, ptr noundef %descriptor, i32 noundef %presenceIndex, ptr noundef %options) unnamed_addr #3 align 2 personality ptr @__gxx_personality_v0 {
entry:
  tail call void @_ZN6google8protobuf8compiler6csharp21WrapperFieldGeneratorC2EPKNS0_15FieldDescriptorEiPKNS2_7OptionsE(ptr noundef nonnull align 8 dereferenceable(65) %this, ptr noundef %descriptor, i32 noundef %presenceIndex, ptr noundef %options)
  store ptr getelementptr inbounds ({ [18 x ptr] }, ptr @_ZTVN6google8protobuf8compiler6csharp26WrapperOneofFieldGeneratorE, i64 0, i32 0, i64 2), ptr %this, align 8
  %variables_ = getelementptr inbounds i8, ptr %this, i64 32
  invoke void @_ZN6google8protobuf8compiler6csharp18FieldGeneratorBase28SetCommonOneofFieldVariablesEPN4absl12lts_2023080213flat_hash_mapISt17basic_string_viewIcSt11char_traitsIcEENSt7__cxx1112basic_stringIcS9_SaIcEEENS5_18container_internal10StringHashENSF_8StringEqESaISt4pairIKSA_SE_EEEE(ptr noundef nonnull align 8 dereferenceable(64) %this, ptr noundef nonnull %variables_)
          to label %invoke.cont unwind label %lpad

invoke.cont:                                      ; preds = %entry
  ret void

lpad:                                             ; preds = %entry
  %0 = landingpad { ptr, i32 }
          cleanup
  tail call void @_ZN6google8protobuf8compiler6csharp18FieldGeneratorBaseD2Ev(ptr noundef nonnull align 8 dereferenceable(64) %this) #21
  resume { ptr, i32 } %0
}